target datalayout = "e-m:e-p270:32:32-p271:32:32-p272:64:64-i64:64-i128:128-f80:128-n8:16:32:64-S128"
target triple = "x86_64-unknown-linux-gnu"

%struct.ckh_t = type { i64, i64, i32, i32, ptr, ptr, ptr }
%struct.ckhc_t = type { ptr, ptr }

; Function Attrs: nounwind uwtable
define internal zeroext i1 @ckh_evict_reloc_insert(ptr noundef %ckh, i64 noundef %argbucket, ptr noundef %argkey, ptr noundef %argdata) #0 {
entry:
  %state.addr.i22 = alloca i64, align 8
  %state.addr.i = alloca ptr, align 8
  %lg_range.addr.i = alloca i32, align 4
  %ret.i = alloca i64, align 8
  %retval = alloca i1, align 1
  %ckh.addr = alloca ptr, align 8
  %argbucket.addr = alloca i64, align 8
  %argkey.addr = alloca ptr, align 8
  %argdata.addr = alloca ptr, align 8
  %key = alloca ptr, align 8
  %data = alloca ptr, align 8
  %tkey = alloca ptr, align 8
  %tdata = alloca ptr, align 8
  %cell = alloca ptr, align 8
  %hashes = alloca [2 x i64], align 16
  %bucket = alloca i64, align 8
  %tbucket = alloca i64, align 8
  %i = alloca i32, align 4
  store ptr %ckh, ptr %ckh.addr, align 8
  store i64 %argbucket, ptr %argbucket.addr, align 8
  store ptr %argkey, ptr %argkey.addr, align 8
  store ptr %argdata, ptr %argdata.addr, align 8
  %0 = load i64, ptr %argbucket.addr, align 8
  store i64 %0, ptr %bucket, align 8
  %1 = load ptr, ptr %argkey.addr, align 8
  %2 = load ptr, ptr %1, align 8
  store ptr %2, ptr %key, align 8
  %3 = load ptr, ptr %argdata.addr, align 8
  %4 = load ptr, ptr %3, align 8
  store ptr %4, ptr %data, align 8
  br label %while.body

while.body:                                       ; preds = %if.end21, %entry
  %5 = load ptr, ptr %ckh.addr, align 8
  %prng_state = getelementptr inbounds %struct.ckh_t, ptr %5, i32 0, i32 0
  store ptr %prng_state, ptr %state.addr.i, align 8
  store i32 2, ptr %lg_range.addr.i, align 4
  %6 = load ptr, ptr %state.addr.i, align 8
  %7 = load i64, ptr %6, align 8
  store i64 %7, ptr %state.addr.i22, align 8
  %8 = load i64, ptr %state.addr.i22, align 8
  %mul.i = mul i64 %8, 6364136223846793005
  %add.i = add i64 %mul.i, 1442695040888963407
  %9 = load ptr, ptr %state.addr.i, align 8
  store i64 %add.i, ptr %9, align 8
  %10 = load ptr, ptr %state.addr.i, align 8
  %11 = load i64, ptr %10, align 8
  %12 = load i32, ptr %lg_range.addr.i, align 4
  %sub.i = sub i32 64, %12
  %sh_prom.i = zext i32 %sub.i to i64
  %shr.i = lshr i64 %11, %sh_prom.i
  store i64 %shr.i, ptr %ret.i, align 8
  %13 = load i64, ptr %ret.i, align 8
  %conv = trunc i64 %13 to i32
  store i32 %conv, ptr %i, align 4
  %14 = load ptr, ptr %ckh.addr, align 8
  %tab = getelementptr inbounds %struct.ckh_t, ptr %14, i32 0, i32 6
  %15 = load ptr, ptr %tab, align 8
  %16 = load i64, ptr %bucket, align 8
  %shl = shl i64 %16, 2
  %17 = load i32, ptr %i, align 4
  %conv1 = zext i32 %17 to i64
  %add = add i64 %shl, %conv1
  %arrayidx = getelementptr inbounds %struct.ckhc_t, ptr %15, i64 %add
  store ptr %arrayidx, ptr %cell, align 8
  br label %do.body

do.body:                                          ; preds = %while.body
  br label %do.end

do.end:                                           ; preds = %do.body
  %18 = load ptr, ptr %cell, align 8
  %key2 = getelementptr inbounds %struct.ckhc_t, ptr %18, i32 0, i32 0
  %19 = load ptr, ptr %key2, align 8
  store ptr %19, ptr %tkey, align 8
  %20 = load ptr, ptr %cell, align 8
  %data3 = getelementptr inbounds %struct.ckhc_t, ptr %20, i32 0, i32 1
  %21 = load ptr, ptr %data3, align 8
  store ptr %21, ptr %tdata, align 8
  %22 = load ptr, ptr %key, align 8
  %23 = load ptr, ptr %cell, align 8
  %key4 = getelementptr inbounds %struct.ckhc_t, ptr %23, i32 0, i32 0
  store ptr %22, ptr %key4, align 8
  %24 = load ptr, ptr %data, align 8
  %25 = load ptr, ptr %cell, align 8
  %data5 = getelementptr inbounds %struct.ckhc_t, ptr %25, i32 0, i32 1
  store ptr %24, ptr %data5, align 8
  %26 = load ptr, ptr %tkey, align 8
  store ptr %26, ptr %key, align 8
  %27 = load ptr, ptr %tdata, align 8
  store ptr %27, ptr %data, align 8
  %28 = load ptr, ptr %ckh.addr, align 8
  %hash = getelementptr inbounds %struct.ckh_t, ptr %28, i32 0, i32 4
  %29 = load ptr, ptr %hash, align 8
  %30 = load ptr, ptr %key, align 8
  %arraydecay = getelementptr inbounds [2 x i64], ptr %hashes, i64 0, i64 0
  call void %29(ptr noundef %30, ptr noundef %arraydecay)
  %arrayidx6 = getelementptr inbounds [2 x i64], ptr %hashes, i64 0, i64 1
  %31 = load i64, ptr %arrayidx6, align 8
  %32 = load ptr, ptr %ckh.addr, align 8
  %lg_curbuckets = getelementptr inbounds %struct.ckh_t, ptr %32, i32 0, i32 3
  %33 = load i32, ptr %lg_curbuckets, align 4
  %sh_prom = zext i32 %33 to i64
  %shl7 = shl i64 1, %sh_prom
  %sub = sub i64 %shl7, 1
  %and = and i64 %31, %sub
  store i64 %and, ptr %tbucket, align 8
  %34 = load i64, ptr %tbucket, align 8
  %35 = load i64, ptr %bucket, align 8
  %cmp = icmp eq i64 %34, %35
  br i1 %cmp, label %if.then, label %if.end

if.then:                                          ; preds = %do.end
  %arrayidx9 = getelementptr inbounds [2 x i64], ptr %hashes, i64 0, i64 0
  %36 = load i64, ptr %arrayidx9, align 16
  %37 = load ptr, ptr %ckh.addr, align 8
  %lg_curbuckets10 = getelementptr inbounds %struct.ckh_t, ptr %37, i32 0, i32 3
  %38 = load i32, ptr %lg_curbuckets10, align 4
  %sh_prom11 = zext i32 %38 to i64
  %shl12 = shl i64 1, %sh_prom11
  %sub13 = sub i64 %shl12, 1
  %and14 = and i64 %36, %sub13
  store i64 %and14, ptr %tbucket, align 8
  br label %if.end

if.end:                                           ; preds = %if.then, %do.end
  %39 = load i64, ptr %tbucket, align 8
  %40 = load i64, ptr %argbucket.addr, align 8
  %cmp15 = icmp eq i64 %39, %40
  br i1 %cmp15, label %if.then17, label %if.end18

if.then17:                                        ; preds = %if.end
  %41 = load ptr, ptr %key, align 8
  %42 = load ptr, ptr %argkey.addr, align 8
  store ptr %41, ptr %42, align 8
  %43 = load ptr, ptr %data, align 8
  %44 = load ptr, ptr %argdata.addr, align 8
  store ptr %43, ptr %44, align 8
  store i1 true, ptr %retval, align 1
  br label %return

if.end18:                                         ; preds = %if.end
  %45 = load i64, ptr %tbucket, align 8
  store i64 %45, ptr %bucket, align 8
  %46 = load ptr, ptr %ckh.addr, align 8
  %47 = load i64, ptr %bucket, align 8
  %48 = load ptr, ptr %key, align 8
  %49 = load ptr, ptr %data, align 8
  %call19 = call zeroext i1 @ckh_try_bucket_insert(ptr noundef %46, i64 noundef %47, ptr noundef %48, ptr noundef %49)
  br i1 %call19, label %if.end21, label %if.then20

if.then20:                                        ; preds = %if.end18
  store i1 false, ptr %retval, align 1
  br label %return

if.end21:                                         ; preds = %if.end18
  br label %while.body

return:                                           ; preds = %if.then20, %if.then17
  %50 = load i1, ptr %retval, align 1
  ret i1 %50
}

; Function Attrs: nounwind uwtable
define internal zeroext i1 @ckh_try_bucket_insert(ptr noundef %ckh, i64 noundef %bucket, ptr noundef %key, ptr noundef %data) #0 {
entry:
  %state.addr.i11 = alloca i64, align 8
  %state.addr.i = alloca ptr, align 8
  %lg_range.addr.i = alloca i32, align 4
  %ret.i = alloca i64, align 8
  %retval = alloca i1, align 1
  %ckh.addr = alloca ptr, align 8
  %bucket.addr = alloca i64, align 8
  %key.addr = alloca ptr, align 8
  %data.addr = alloca ptr, align 8
  %cell = alloca ptr, align 8
  %offset = alloca i32, align 4
  %i = alloca i32, align 4
  store ptr %ckh, ptr %ckh.addr, align 8
  store i64 %bucket, ptr %bucket.addr, align 8
  store ptr %key, ptr %key.addr, align 8
  store ptr %data, ptr %data.addr, align 8
  %0 = load ptr, ptr %ckh.addr, align 8
  %prng_state = getelementptr inbounds %struct.ckh_t, ptr %0, i32 0, i32 0
  store ptr %prng_state, ptr %state.addr.i, align 8
  store i32 2, ptr %lg_range.addr.i, align 4
  %1 = load ptr, ptr %state.addr.i, align 8
  %2 = load i64, ptr %1, align 8
  store i64 %2, ptr %state.addr.i11, align 8
  %3 = load i64, ptr %state.addr.i11, align 8
  %mul.i = mul i64 %3, 6364136223846793005
  %add.i = add i64 %mul.i, 1442695040888963407
  %4 = load ptr, ptr %state.addr.i, align 8
  store i64 %add.i, ptr %4, align 8
  %5 = load ptr, ptr %state.addr.i, align 8
  %6 = load i64, ptr %5, align 8
  %7 = load i32, ptr %lg_range.addr.i, align 4
  %sub.i = sub i32 64, %7
  %sh_prom.i = zext i32 %sub.i to i64
  %shr.i = lshr i64 %6, %sh_prom.i
  store i64 %shr.i, ptr %ret.i, align 8
  %8 = load i64, ptr %ret.i, align 8
  %conv = trunc i64 %8 to i32
  store i32 %conv, ptr %offset, align 4
  store i32 0, ptr %i, align 4
  br label %for.cond

for.cond:                                         ; preds = %for.inc, %entry
  %9 = load i32, ptr %i, align 4
  %conv1 = zext i32 %9 to i64
  %cmp = icmp ult i64 %conv1, 4
  br i1 %cmp, label %for.body, label %for.end

for.body:                                         ; preds = %for.cond
  %10 = load ptr, ptr %ckh.addr, align 8
  %tab = getelementptr inbounds %struct.ckh_t, ptr %10, i32 0, i32 6
  %11 = load ptr, ptr %tab, align 8
  %12 = load i64, ptr %bucket.addr, align 8
  %shl = shl i64 %12, 2
  %13 = load i32, ptr %i, align 4
  %14 = load i32, ptr %offset, align 4
  %add = add i32 %13, %14
  %conv3 = zext i32 %add to i64
  %and = and i64 %conv3, 3
  %add4 = add i64 %shl, %and
  %arrayidx = getelementptr inbounds %struct.ckhc_t, ptr %11, i64 %add4
  store ptr %arrayidx, ptr %cell, align 8
  %15 = load ptr, ptr %cell, align 8
  %key5 = getelementptr inbounds %struct.ckhc_t, ptr %15, i32 0, i32 0
  %16 = load ptr, ptr %key5, align 8
  %cmp6 = icmp eq ptr %16, null
  br i1 %cmp6, label %if.then, label %if.end

if.then:                                          ; preds = %for.body
  %17 = load ptr, ptr %key.addr, align 8
  %18 = load ptr, ptr %cell, align 8
  %key8 = getelementptr inbounds %struct.ckhc_t, ptr %18, i32 0, i32 0
  store ptr %17, ptr %key8, align 8
  %19 = load ptr, ptr %data.addr, align 8
  %20 = load ptr, ptr %cell, align 8
  %data9 = getelementptr inbounds %struct.ckhc_t, ptr %20, i32 0, i32 1
  store ptr %19, ptr %data9, align 8
  %21 = load ptr, ptr %ckh.addr, align 8
  %count = getelementptr inbounds %struct.ckh_t, ptr %21, i32 0, i32 1
  %22 = load i64, ptr %count, align 8
  %inc = add i64 %22, 1
  store i64 %inc, ptr %count, align 8
  store i1 false, ptr %retval, align 1
  br label %return

if.end:                                           ; preds = %for.body
  br label %for.inc

for.inc:                                          ; preds = %if.end
  %23 = load i32, ptr %i, align 4
  %inc10 = add i32 %23, 1
  store i32 %inc10, ptr %i, align 4
  br label %for.cond, !llvm.loop !22

for.end:                                          ; preds = %for.cond
  store i1 true, ptr %retval, align 1
  br label %return

return:                                           ; preds = %for.end, %if.then
  %24 = load i1, ptr %retval, align 1
  ret i1 %24
}

; Function Attrs: nounwind uwtable
define internal zeroext i1 @ckh_try_insert(ptr noundef %ckh, ptr noundef %argkey, ptr noundef %argdata) #0 {
entry:
  %retval = alloca i1, align 1
  %ckh.addr = alloca ptr, align 8
  %argkey.addr = alloca ptr, align 8
  %argdata.addr = alloca ptr, align 8
  %hashes = alloca [2 x i64], align 16
  %bucket = alloca i64, align 8
  %key = alloca ptr, align 8
  %data = alloca ptr, align 8
  store ptr %ckh, ptr %ckh.addr, align 8
  store ptr %argkey, ptr %argkey.addr, align 8
  store ptr %argdata, ptr %argdata.addr, align 8
  %0 = load ptr, ptr %argkey.addr, align 8
  %1 = load ptr, ptr %0, align 8
  store ptr %1, ptr %key, align 8
  %2 = load ptr, ptr %argdata.addr, align 8
  %3 = load ptr, ptr %2, align 8
  store ptr %3, ptr %data, align 8
  %4 = load ptr, ptr %ckh.addr, align 8
  %hash = getelementptr inbounds %struct.ckh_t, ptr %4, i32 0, i32 4
  %5 = load ptr, ptr %hash, align 8
  %6 = load ptr, ptr %key, align 8
  %arraydecay = getelementptr inbounds [2 x i64], ptr %hashes, i64 0, i64 0
  call void %5(ptr noundef %6, ptr noundef %arraydecay)
  %arrayidx = getelementptr inbounds [2 x i64], ptr %hashes, i64 0, i64 0
  %7 = load i64, ptr %arrayidx, align 16
  %8 = load ptr, ptr %ckh.addr, align 8
  %lg_curbuckets = getelementptr inbounds %struct.ckh_t, ptr %8, i32 0, i32 3
  %9 = load i32, ptr %lg_curbuckets, align 4
  %sh_prom = zext i32 %9 to i64
  %shl = shl i64 1, %sh_prom
  %sub = sub i64 %shl, 1
  %and = and i64 %7, %sub
  store i64 %and, ptr %bucket, align 8
  %10 = load ptr, ptr %ckh.addr, align 8
  %11 = load i64, ptr %bucket, align 8
  %12 = load ptr, ptr %key, align 8
  %13 = load ptr, ptr %data, align 8
  %call = call zeroext i1 @ckh_try_bucket_insert(ptr noundef %10, i64 noundef %11, ptr noundef %12, ptr noundef %13)
  br i1 %call, label %if.end, label %if.then

if.then:                                          ; preds = %entry
  store i1 false, ptr %retval, align 1
  br label %return

if.end:                                           ; preds = %entry
  %arrayidx1 = getelementptr inbounds [2 x i64], ptr %hashes, i64 0, i64 1
  %14 = load i64, ptr %arrayidx1, align 8
  %15 = load ptr, ptr %ckh.addr, align 8
  %lg_curbuckets2 = getelementptr inbounds %struct.ckh_t, ptr %15, i32 0, i32 3
  %16 = load i32, ptr %lg_curbuckets2, align 4
  %sh_prom3 = zext i32 %16 to i64
  %shl4 = shl i64 1, %sh_prom3
  %sub5 = sub i64 %shl4, 1
  %and6 = and i64 %14, %sub5
  store i64 %and6, ptr %bucket, align 8
  %17 = load ptr, ptr %ckh.addr, align 8
  %18 = load i64, ptr %bucket, align 8
  %19 = load ptr, ptr %key, align 8
  %20 = load ptr, ptr %data, align 8
  %call7 = call zeroext i1 @ckh_try_bucket_insert(ptr noundef %17, i64 noundef %18, ptr noundef %19, ptr noundef %20)
  br i1 %call7, label %if.end9, label %if.then8

if.then8:                                         ; preds = %if.end
  store i1 false, ptr %retval, align 1
  br label %return

if.end9:                                          ; preds = %if.end
  %21 = load ptr, ptr %ckh.addr, align 8
  %22 = load i64, ptr %bucket, align 8
  %23 = load ptr, ptr %argkey.addr, align 8
  %24 = load ptr, ptr %argdata.addr, align 8
  %call10 = call zeroext i1 @ckh_evict_reloc_insert(ptr noundef %21, i64 noundef %22, ptr noundef %23, ptr noundef %24)
  store i1 %call10, ptr %retval, align 1
  br label %return

return:                                           ; preds = %if.end9, %if.then8, %if.then
  %25 = load i1, ptr %retval, align 1
  ret i1 %25
}