; Function Attrs: nounwind uwtable
define internal fastcc noundef zeroext i1 @ckh_try_insert(ptr nocapture noundef %ckh, ptr nocapture noundef %argkey, ptr nocapture noundef %argdata) unnamed_addr #0 {
entry:
  %hashes.i = alloca [2 x i64], align 16
  %hashes = alloca [2 x i64], align 16
  %0 = load ptr, ptr %argkey, align 8
  %1 = load ptr, ptr %argdata, align 8
  %hash = getelementptr inbounds i8, ptr %ckh, i64 24
  %2 = load ptr, ptr %hash, align 8
  call void %2(ptr noundef %0, ptr noundef nonnull %hashes) #13
  %3 = load i64, ptr %hashes, align 16
  %lg_curbuckets = getelementptr inbounds i8, ptr %ckh, i64 20
  %4 = load i32, ptr %lg_curbuckets, align 4
  %sh_prom = zext nneg i32 %4 to i64
  %notmask = shl nsw i64 -1, %sh_prom
  %sub = xor i64 %notmask, -1
  %and = and i64 %3, %sub
  %5 = load i64, ptr %ckh, align 8
  %mul.i.i = mul i64 %5, 6364136223846793005
  %add.i.i = add i64 %mul.i.i, 1442695040888963407
  store i64 %add.i.i, ptr %ckh, align 8
  %shr.i.i = lshr i64 %add.i.i, 62
  %conv.i = trunc i64 %shr.i.i to i32
  %tab.i = getelementptr inbounds i8, ptr %ckh, i64 40
  %6 = load ptr, ptr %tab.i, align 8
  %shl.i = shl i64 %and, 2
  %add4.i60 = or disjoint i64 %shr.i.i, %shl.i
  %arrayidx.i61 = getelementptr inbounds %struct.ckhc_t, ptr %6, i64 %add4.i60
  %7 = load ptr, ptr %arrayidx.i61, align 8
  %cmp6.i62 = icmp eq ptr %7, null
  br i1 %cmp6.i62, label %return.critedge, label %for.cond.i

for.cond.i:                                       ; preds = %entry, %for.body.i
  %i.011.i63 = phi i32 [ %inc10.i, %for.body.i ], [ 0, %entry ]
  %inc10.i = add nuw nsw i32 %i.011.i63, 1
  %exitcond.i = icmp eq i32 %inc10.i, 4
  br i1 %exitcond.i, label %if.end, label %for.body.i, !llvm.loop !11

for.body.i:                                       ; preds = %for.cond.i
  %add.i = add nuw nsw i32 %inc10.i, %conv.i
  %8 = and i32 %add.i, 3
  %and.i = zext nneg i32 %8 to i64
  %add4.i = or disjoint i64 %shl.i, %and.i
  %arrayidx.i = getelementptr inbounds %struct.ckhc_t, ptr %6, i64 %add4.i
  %9 = load ptr, ptr %arrayidx.i, align 8
  %cmp6.i = icmp eq ptr %9, null
  br i1 %cmp6.i, label %if.then.i, label %for.cond.i, !llvm.loop !11

if.then.i:                                        ; preds = %for.body.i
  %cmp.i.le = icmp ugt i32 %i.011.i63, 2
  store ptr %0, ptr %arrayidx.i, align 8
  %data9.i = getelementptr inbounds i8, ptr %arrayidx.i, i64 8
  store ptr %1, ptr %data9.i, align 8
  %count.i = getelementptr inbounds i8, ptr %ckh, i64 8
  %10 = load i64, ptr %count.i, align 8
  %inc.i = add i64 %10, 1
  store i64 %inc.i, ptr %count.i, align 8
  br i1 %cmp.i.le, label %if.then.i.if.end_crit_edge, label %return

if.then.i.if.end_crit_edge:                       ; preds = %if.then.i
  %.pre = load i32, ptr %lg_curbuckets, align 4
  %.pre85 = load i64, ptr %ckh, align 8
  %.pre86 = load ptr, ptr %tab.i, align 8
  %.pre87 = zext nneg i32 %.pre to i64
  %.pre88 = shl nsw i64 -1, %.pre87
  %.pre89 = xor i64 %.pre88, -1
  br label %if.end

if.end:                                           ; preds = %for.cond.i, %if.then.i.if.end_crit_edge
  %sub5.pre-phi = phi i64 [ %.pre89, %if.then.i.if.end_crit_edge ], [ %sub, %for.cond.i ]
  %11 = phi ptr [ %.pre86, %if.then.i.if.end_crit_edge ], [ %6, %for.cond.i ]
  %12 = phi i64 [ %.pre85, %if.then.i.if.end_crit_edge ], [ %add.i.i, %for.cond.i ]
  %arrayidx1 = getelementptr inbounds i8, ptr %hashes, i64 8
  %13 = load i64, ptr %arrayidx1, align 8
  %and6 = and i64 %13, %sub5.pre-phi
  %mul.i.i14 = mul i64 %12, 6364136223846793005
  %add.i.i15 = add i64 %mul.i.i14, 1442695040888963407
  store i64 %add.i.i15, ptr %ckh, align 8
  %shr.i.i16 = lshr i64 %add.i.i15, 62
  %conv.i17 = trunc i64 %shr.i.i16 to i32
  %shl.i19 = shl i64 %and6, 2
  %add4.i2566 = or disjoint i64 %shr.i.i16, %shl.i19
  %arrayidx.i2667 = getelementptr inbounds %struct.ckhc_t, ptr %11, i64 %add4.i2566
  %14 = load ptr, ptr %arrayidx.i2667, align 8
  %cmp6.i2768 = icmp eq ptr %14, null
  br i1 %cmp6.i2768, label %return.critedge72, label %for.cond.i28

for.cond.i28:                                     ; preds = %if.end, %for.body.i20
  %i.011.i2269 = phi i32 [ %inc10.i29, %for.body.i20 ], [ 0, %if.end ]
  %inc10.i29 = add nuw nsw i32 %i.011.i2269, 1
  %exitcond.i31 = icmp eq i32 %inc10.i29, 4
  br i1 %exitcond.i31, label %if.end9, label %for.body.i20, !llvm.loop !11

for.body.i20:                                     ; preds = %for.cond.i28
  %add.i23 = add nuw nsw i32 %inc10.i29, %conv.i17
  %15 = and i32 %add.i23, 3
  %and.i24 = zext nneg i32 %15 to i64
  %add4.i25 = or disjoint i64 %shl.i19, %and.i24
  %arrayidx.i26 = getelementptr inbounds %struct.ckhc_t, ptr %11, i64 %add4.i25
  %16 = load ptr, ptr %arrayidx.i26, align 8
  %cmp6.i27 = icmp eq ptr %16, null
  br i1 %cmp6.i27, label %if.then.i33, label %for.cond.i28, !llvm.loop !11

if.then.i33:                                      ; preds = %for.body.i20
  %cmp.i30.le = icmp ugt i32 %i.011.i2269, 2
  store ptr %0, ptr %arrayidx.i26, align 8
  %data9.i34 = getelementptr inbounds i8, ptr %arrayidx.i26, i64 8
  store ptr %1, ptr %data9.i34, align 8
  %count.i35 = getelementptr inbounds i8, ptr %ckh, i64 8
  %17 = load i64, ptr %count.i35, align 8
  %inc.i36 = add i64 %17, 1
  store i64 %inc.i36, ptr %count.i35, align 8
  br i1 %cmp.i30.le, label %if.end9, label %return

if.end9:                                          ; preds = %for.cond.i28, %if.then.i33
  call void @llvm.lifetime.start.p0(i64 16, ptr nonnull %hashes.i)
  %18 = load ptr, ptr %argkey, align 8
  %19 = load ptr, ptr %argdata, align 8
  %arrayidx6.i = getelementptr inbounds i8, ptr %hashes.i, i64 8
  %count.i.i = getelementptr inbounds i8, ptr %ckh, i64 8
  br label %while.body.i

while.body.i:                                     ; preds = %while.body.i.backedge, %if.end9
  %data.0.i = phi ptr [ %19, %if.end9 ], [ %23, %while.body.i.backedge ]
  %key.0.i = phi ptr [ %18, %if.end9 ], [ %22, %while.body.i.backedge ]
  %bucket.0.i = phi i64 [ %and6, %if.end9 ], [ %tbucket.0.i, %while.body.i.backedge ]
  %20 = load i64, ptr %ckh, align 8
  %mul.i.i39 = mul i64 %20, 6364136223846793005
  %add.i.i40 = add i64 %mul.i.i39, 1442695040888963407
  store i64 %add.i.i40, ptr %ckh, align 8
  %21 = load ptr, ptr %tab.i, align 8
  %add.i41 = call i64 @llvm.fshl.i64(i64 %bucket.0.i, i64 %add.i.i40, i64 2)
  %arrayidx.i42 = getelementptr inbounds %struct.ckhc_t, ptr %21, i64 %add.i41
  %22 = load ptr, ptr %arrayidx.i42, align 8
  %data3.i = getelementptr inbounds i8, ptr %arrayidx.i42, i64 8
  %23 = load ptr, ptr %data3.i, align 8
  store ptr %key.0.i, ptr %arrayidx.i42, align 8
  store ptr %data.0.i, ptr %data3.i, align 8
  %24 = load ptr, ptr %hash, align 8
  call void %24(ptr noundef %22, ptr noundef nonnull %hashes.i) #13
  %25 = load i64, ptr %arrayidx6.i, align 8
  %26 = load i32, ptr %lg_curbuckets, align 4
  %sh_prom.i = zext nneg i32 %26 to i64
  %notmask.i = shl nsw i64 -1, %sh_prom.i
  %sub.i = xor i64 %notmask.i, -1
  %and.i43 = and i64 %25, %sub.i
  %cmp.i44 = icmp eq i64 %and.i43, %bucket.0.i
  %27 = load i64, ptr %hashes.i, align 16
  %and14.i = and i64 %27, %sub.i
  %tbucket.0.i = select i1 %cmp.i44, i64 %and14.i, i64 %and.i43
  %cmp15.i = icmp eq i64 %tbucket.0.i, %and6
  br i1 %cmp15.i, label %if.then17.i, label %if.end18.i

if.then17.i:                                      ; preds = %while.body.i
  store ptr %22, ptr %argkey, align 8
  store ptr %23, ptr %argdata, align 8
  br label %ckh_evict_reloc_insert.exit

if.end18.i:                                       ; preds = %while.body.i
  %28 = load i64, ptr %ckh, align 8
  %mul.i.i.i = mul i64 %28, 6364136223846793005
  %add.i.i.i = add i64 %mul.i.i.i, 1442695040888963407
  store i64 %add.i.i.i, ptr %ckh, align 8
  %shr.i.i.i = lshr i64 %add.i.i.i, 62
  %conv.i.i = trunc i64 %shr.i.i.i to i32
  %29 = load ptr, ptr %tab.i, align 8
  %shl.i.i = shl i64 %tbucket.0.i, 2
  %add4.i32.i = or disjoint i64 %shr.i.i.i, %shl.i.i
  %arrayidx.i33.i = getelementptr inbounds %struct.ckhc_t, ptr %29, i64 %add4.i32.i
  %30 = load ptr, ptr %arrayidx.i33.i, align 8
  %cmp6.i34.i = icmp eq ptr %30, null
  br i1 %cmp6.i34.i, label %return.loopexit.critedge.i, label %for.cond.i.i

for.cond.i.i:                                     ; preds = %if.end18.i, %for.body.i.i
  %i.011.i35.i = phi i32 [ %inc10.i.i, %for.body.i.i ], [ 0, %if.end18.i ]
  %inc10.i.i = add nuw nsw i32 %i.011.i35.i, 1
  %exitcond.i.i = icmp eq i32 %inc10.i.i, 4
  br i1 %exitcond.i.i, label %while.body.i.backedge, label %for.body.i.i, !llvm.loop !11

for.body.i.i:                                     ; preds = %for.cond.i.i
  %add.i23.i = add nuw nsw i32 %inc10.i.i, %conv.i.i
  %31 = and i32 %add.i23.i, 3
  %and.i.i = zext nneg i32 %31 to i64
  %add4.i.i = or disjoint i64 %shl.i.i, %and.i.i
  %arrayidx.i.i = getelementptr inbounds %struct.ckhc_t, ptr %29, i64 %add4.i.i
  %32 = load ptr, ptr %arrayidx.i.i, align 8
  %cmp6.i.i = icmp eq ptr %32, null
  br i1 %cmp6.i.i, label %if.then.i.i, label %for.cond.i.i, !llvm.loop !11

if.then.i.i:                                      ; preds = %for.body.i.i
  %cmp.i.le.i = icmp ugt i32 %i.011.i35.i, 2
  store ptr %22, ptr %arrayidx.i.i, align 8
  %data9.i.i = getelementptr inbounds i8, ptr %arrayidx.i.i, i64 8
  store ptr %23, ptr %data9.i.i, align 8
  %33 = load i64, ptr %count.i.i, align 8
  %inc.i.i = add i64 %33, 1
  store i64 %inc.i.i, ptr %count.i.i, align 8
  br i1 %cmp.i.le.i, label %while.body.i.backedge, label %ckh_evict_reloc_insert.exit

while.body.i.backedge:                            ; preds = %for.cond.i.i, %if.then.i.i
  br label %while.body.i

return.loopexit.critedge.i:                       ; preds = %if.end18.i
  store ptr %22, ptr %arrayidx.i33.i, align 8
  %data9.i.c.i = getelementptr inbounds i8, ptr %arrayidx.i33.i, i64 8
  store ptr %23, ptr %data9.i.c.i, align 8
  %34 = load i64, ptr %count.i.i, align 8
  %inc.i.c.i = add i64 %34, 1
  store i64 %inc.i.c.i, ptr %count.i.i, align 8
  br label %ckh_evict_reloc_insert.exit

ckh_evict_reloc_insert.exit:                      ; preds = %if.then.i.i, %if.then17.i, %return.loopexit.critedge.i
  call void @llvm.lifetime.end.p0(i64 16, ptr nonnull %hashes.i)
  br label %return

return.critedge:                                  ; preds = %entry
  store ptr %0, ptr %arrayidx.i61, align 8
  %data9.i.c = getelementptr inbounds i8, ptr %arrayidx.i61, i64 8
  store ptr %1, ptr %data9.i.c, align 8
  %count.i.c = getelementptr inbounds i8, ptr %ckh, i64 8
  %35 = load i64, ptr %count.i.c, align 8
  %inc.i.c = add i64 %35, 1
  store i64 %inc.i.c, ptr %count.i.c, align 8
  br label %return

return.critedge72:                                ; preds = %if.end
  store ptr %0, ptr %arrayidx.i2667, align 8
  %data9.i34.c = getelementptr inbounds i8, ptr %arrayidx.i2667, i64 8
  store ptr %1, ptr %data9.i34.c, align 8
  %count.i35.c = getelementptr inbounds i8, ptr %ckh, i64 8
  %36 = load i64, ptr %count.i35.c, align 8
  %inc.i36.c = add i64 %36, 1
  store i64 %inc.i36.c, ptr %count.i35.c, align 8
  br label %return

return:                                           ; preds = %return.critedge72, %return.critedge, %if.then.i33, %if.then.i, %ckh_evict_reloc_insert.exit
  %retval.0 = phi i1 [ %cmp15.i, %ckh_evict_reloc_insert.exit ], [ false, %if.then.i ], [ false, %if.then.i33 ], [ false, %return.critedge ], [ false, %return.critedge72 ]
  ret i1 %retval.0
}